target datalayout = "e-m:e-p270:32:32-p271:32:32-p272:64:64-i64:64-i128:128-f80:128-n8:16:32:64-S128"
target triple = "x86_64-unknown-linux-gnu"

%struct.ERSTDeviceState = type { %struct.PCIDevice, ptr, ptr, i32, i32, %struct.MemoryRegion, %struct.MemoryRegion, i8, i8, i8, i32, i64, i64, i64, ptr, i32, i32, i32 }
%struct.PCIDevice = type { %struct.DeviceState, i8, i8, ptr, ptr, ptr, ptr, ptr, i32, %struct.PCIReqIDCache, [64 x i8], [7 x %struct.PCIIORegion], %struct.AddressSpace, %struct.MemoryRegion, %struct.MemoryRegion, ptr, ptr, [3 x ptr], i8, i8, i32, i8, i32, ptr, ptr, ptr, ptr, ptr, ptr, %struct.MemoryRegion, %struct.MemoryRegion, %struct.MemoryRegion, ptr, i8, i32, i8, %struct.PCIExpressDevice, ptr, ptr, i32, i8, %struct.MemoryRegion, i32, ptr, ptr, ptr, ptr, ptr, i32 }
%struct.DeviceState = type { %struct.Object, ptr, ptr, i8, i8, i64, ptr, i32, i8, ptr, %struct.NamedGPIOListHead, %struct.NamedClockListHead, %struct.BusStateHead, i32, i32, i32, %struct.ResettableState, ptr, %struct.MemReentrancyGuard }
%struct.Object = type { ptr, ptr, ptr, i32, ptr }
%struct.NamedGPIOListHead = type { ptr }
%struct.NamedClockListHead = type { ptr }
%struct.BusStateHead = type { ptr }
%struct.ResettableState = type { i32, i8, i8 }
%struct.MemReentrancyGuard = type { i8 }
%struct.PCIReqIDCache = type { ptr, i32 }
%struct.PCIIORegion = type { i64, i64, i8, ptr, ptr }
%struct.AddressSpace = type { %struct.rcu_head, ptr, ptr, ptr, i32, i32, ptr, %union.anon.0, %union.anon.1 }
%struct.rcu_head = type { ptr, ptr }
%union.anon.0 = type { %struct.QTailQLink }
%struct.QTailQLink = type { ptr, ptr }
%union.anon.1 = type { %struct.QTailQLink }
%struct.PCIExpressDevice = type { i8, i8, i8, i16, %struct.PCIEAERLog, i16, i16, i16, %struct.PCIESriovPF, %struct.PCIESriovVF }
%struct.PCIEAERLog = type { i16, i16, ptr }
%struct.PCIESriovPF = type { i16, [7 x i8], ptr, ptr }
%struct.PCIESriovVF = type { ptr, i16 }
%struct.MemoryRegion = type { %struct.Object, i8, i8, i8, i8, i8, i8, i8, i8, i8, i8, ptr, ptr, ptr, ptr, ptr, ptr, i32, i128, i64, ptr, i64, i8, i8, i8, i8, i8, ptr, i64, i32, %union.anon.2, %union.anon.3, %union.anon.4, ptr, i32, ptr, ptr, i8 }
%union.anon.2 = type { %struct.QTailQLink }
%union.anon.3 = type { %struct.QTailQLink }
%union.anon.4 = type { %struct.QTailQLink }
%struct.ERSTStorageHeader = type { i64, i32, i32, i16, i16, i32, [0 x i64] }

; Function Attrs: nounwind sspstrong uwtable
define internal i64 @cpu_to_le64(i64 noundef %v) #0 {
entry:
  %v.addr = alloca i64, align 8
  store i64 %v, ptr %v.addr, align 8
  %0 = load i64, ptr %v.addr, align 8
  ret i64 %0
}

; Function Attrs: nounwind sspstrong uwtable
define internal i64 @le64_to_cpu(i64 noundef %v) #0 {
entry:
  %v.addr = alloca i64, align 8
  store i64 %v, ptr %v.addr, align 8
  %0 = load i64, ptr %v.addr, align 8
  ret i64 %0
}

; Function Attrs: nounwind sspstrong uwtable
define internal i32 @cpu_to_le32(i32 noundef %v) #0 {
entry:
  %v.addr = alloca i32, align 4
  store i32 %v, ptr %v.addr, align 4
  %0 = load i32, ptr %v.addr, align 4
  ret i32 %0
}

; Function Attrs: nounwind sspstrong uwtable
define internal i32 @le32_to_cpu(i32 noundef %v) #0 {
entry:
  %v.addr = alloca i32, align 4
  store i32 %v, ptr %v.addr, align 4
  %0 = load i32, ptr %v.addr, align 4
  ret i32 %0
}

; Function Attrs: nounwind sspstrong uwtable
define internal void @update_map_entry(ptr noundef %s, i32 noundef %index, i64 noundef %record_id) #0 {
entry:
  %s.addr = alloca ptr, align 8
  %index.addr = alloca i32, align 4
  %record_id.addr = alloca i64, align 8
  store ptr %s, ptr %s.addr, align 8
  store i32 %index, ptr %index.addr, align 4
  store i64 %record_id, ptr %record_id.addr, align 8
  %0 = load i32, ptr %index.addr, align 4
  %1 = load ptr, ptr %s.addr, align 8
  %last_record_index = getelementptr inbounds %struct.ERSTDeviceState, ptr %1, i32 0, i32 16
  %2 = load i32, ptr %last_record_index, align 4
  %cmp = icmp ult i32 %0, %2
  br i1 %cmp, label %if.then, label %if.end

if.then:                                          ; preds = %entry
  %3 = load i64, ptr %record_id.addr, align 8
  %call = call i64 @cpu_to_le64(i64 noundef %3)
  %4 = load ptr, ptr %s.addr, align 8
  %header = getelementptr inbounds %struct.ERSTDeviceState, ptr %4, i32 0, i32 14
  %5 = load ptr, ptr %header, align 16
  %map = getelementptr inbounds %struct.ERSTStorageHeader, ptr %5, i32 0, i32 6
  %6 = load i32, ptr %index.addr, align 4
  %idxprom = zext i32 %6 to i64
  %arrayidx = getelementptr [0 x i64], ptr %map, i64 0, i64 %idxprom
  store i64 %call, ptr %arrayidx, align 1
  br label %if.end

if.end:                                           ; preds = %if.then, %entry
  ret void
}

; Function Attrs: nounwind sspstrong uwtable
define internal i32 @lookup_erst_record(ptr noundef %s, i64 noundef %record_identifier) #0 {
entry:
  %s.addr = alloca ptr, align 8
  %record_identifier.addr = alloca i64, align 8
  %rc = alloca i32, align 4
  %record_count = alloca i32, align 4
  %count = alloca i32, align 4
  %index = alloca i32, align 4
  store ptr %s, ptr %s.addr, align 8
  store i64 %record_identifier, ptr %record_identifier.addr, align 8
  store i32 0, ptr %rc, align 4
  %0 = load i64, ptr %record_identifier.addr, align 8
  %cmp = icmp ne i64 %0, 0
  br i1 %cmp, label %if.then, label %if.end17

if.then:                                          ; preds = %entry
  %1 = load ptr, ptr %s.addr, align 8
  %header = getelementptr inbounds %struct.ERSTDeviceState, ptr %1, i32 0, i32 14
  %2 = load ptr, ptr %header, align 16
  %record_count1 = getelementptr inbounds %struct.ERSTStorageHeader, ptr %2, i32 0, i32 5
  %3 = load i32, ptr %record_count1, align 1
  %call = call i32 @le32_to_cpu(i32 noundef %3)
  store i32 %call, ptr %record_count, align 4
  store i32 0, ptr %count, align 4
  %4 = load ptr, ptr %s.addr, align 8
  %first_record_index = getelementptr inbounds %struct.ERSTDeviceState, ptr %4, i32 0, i32 15
  %5 = load i32, ptr %first_record_index, align 8
  store i32 %5, ptr %index, align 4
  br label %for.cond

for.cond:                                         ; preds = %for.inc, %if.then
  %6 = load i32, ptr %index, align 4
  %7 = load ptr, ptr %s.addr, align 8
  %last_record_index = getelementptr inbounds %struct.ERSTDeviceState, ptr %7, i32 0, i32 16
  %8 = load i32, ptr %last_record_index, align 4
  %cmp2 = icmp ult i32 %6, %8
  br i1 %cmp2, label %land.rhs, label %land.end

land.rhs:                                         ; preds = %for.cond
  %9 = load i32, ptr %count, align 4
  %10 = load i32, ptr %record_count, align 4
  %cmp3 = icmp ult i32 %9, %10
  br label %land.end

land.end:                                         ; preds = %land.rhs, %for.cond
  %11 = phi i1 [ false, %for.cond ], [ %cmp3, %land.rhs ]
  br i1 %11, label %for.body, label %for.end

for.body:                                         ; preds = %land.end
  %12 = load ptr, ptr %s.addr, align 8
  %header4 = getelementptr inbounds %struct.ERSTDeviceState, ptr %12, i32 0, i32 14
  %13 = load ptr, ptr %header4, align 16
  %map = getelementptr inbounds %struct.ERSTStorageHeader, ptr %13, i32 0, i32 6
  %14 = load i32, ptr %index, align 4
  %idxprom = zext i32 %14 to i64
  %arrayidx = getelementptr [0 x i64], ptr %map, i64 0, i64 %idxprom
  %15 = load i64, ptr %arrayidx, align 1
  %call5 = call i64 @le64_to_cpu(i64 noundef %15)
  %16 = load i64, ptr %record_identifier.addr, align 8
  %cmp6 = icmp eq i64 %call5, %16
  br i1 %cmp6, label %if.then7, label %if.end

if.then7:                                         ; preds = %for.body
  %17 = load i32, ptr %index, align 4
  store i32 %17, ptr %rc, align 4
  br label %for.end

if.end:                                           ; preds = %for.body
  %18 = load ptr, ptr %s.addr, align 8
  %header8 = getelementptr inbounds %struct.ERSTDeviceState, ptr %18, i32 0, i32 14
  %19 = load ptr, ptr %header8, align 16
  %map9 = getelementptr inbounds %struct.ERSTStorageHeader, ptr %19, i32 0, i32 6
  %20 = load i32, ptr %index, align 4
  %idxprom10 = zext i32 %20 to i64
  %arrayidx11 = getelementptr [0 x i64], ptr %map9, i64 0, i64 %idxprom10
  %21 = load i64, ptr %arrayidx11, align 1
  %call12 = call i64 @le64_to_cpu(i64 noundef %21)
  %cmp13 = icmp ne i64 %call12, 0
  br i1 %cmp13, label %if.then14, label %if.end15

if.then14:                                        ; preds = %if.end
  %22 = load i32, ptr %count, align 4
  %inc = add i32 %22, 1
  store i32 %inc, ptr %count, align 4
  br label %if.end15

if.end15:                                         ; preds = %if.then14, %if.end
  br label %for.inc

for.inc:                                          ; preds = %if.end15
  %23 = load i32, ptr %index, align 4
  %inc16 = add i32 %23, 1
  store i32 %inc16, ptr %index, align 4
  br label %for.cond, !llvm.loop !7

for.end:                                          ; preds = %if.then7, %land.end
  br label %if.end17

if.end17:                                         ; preds = %for.end, %entry
  %24 = load i32, ptr %rc, align 4
  ret i32 %24
}

; Function Attrs: nounwind sspstrong uwtable
define internal i32 @clear_erst_record(ptr noundef %s) #0 {
entry:
  %retval = alloca i32, align 4
  %s.addr = alloca ptr, align 8
  %rc = alloca i32, align 4
  %index = alloca i32, align 4
  %record_count = alloca i32, align 4
  store ptr %s, ptr %s.addr, align 8
  store i32 5, ptr %rc, align 4
  %0 = load ptr, ptr %s.addr, align 8
  %record_identifier = getelementptr inbounds %struct.ERSTDeviceState, ptr %0, i32 0, i32 13
  %1 = load i64, ptr %record_identifier, align 8
  %cmp = icmp ne i64 %1, 0
  br i1 %cmp, label %land.lhs.true, label %if.then

land.lhs.true:                                    ; preds = %entry
  %2 = load ptr, ptr %s.addr, align 8
  %record_identifier1 = getelementptr inbounds %struct.ERSTDeviceState, ptr %2, i32 0, i32 13
  %3 = load i64, ptr %record_identifier1, align 8
  %cmp2 = icmp ne i64 %3, -1
  br i1 %cmp2, label %if.end, label %if.then

if.then:                                          ; preds = %land.lhs.true, %entry
  store i32 3, ptr %retval, align 4
  br label %return

if.end:                                           ; preds = %land.lhs.true
  %4 = load ptr, ptr %s.addr, align 8
  %5 = load ptr, ptr %s.addr, align 8
  %record_identifier3 = getelementptr inbounds %struct.ERSTDeviceState, ptr %5, i32 0, i32 13
  %6 = load i64, ptr %record_identifier3, align 8
  %call = call i32 @lookup_erst_record(ptr noundef %4, i64 noundef %6)
  store i32 %call, ptr %index, align 4
  %7 = load i32, ptr %index, align 4
  %tobool = icmp ne i32 %7, 0
  br i1 %tobool, label %if.then4, label %if.end10

if.then4:                                         ; preds = %if.end
  %8 = load ptr, ptr %s.addr, align 8
  %9 = load i32, ptr %index, align 4
  call void @update_map_entry(ptr noundef %8, i32 noundef %9, i64 noundef 0)
  %10 = load ptr, ptr %s.addr, align 8
  %header = getelementptr inbounds %struct.ERSTDeviceState, ptr %10, i32 0, i32 14
  %11 = load ptr, ptr %header, align 16
  %record_count5 = getelementptr inbounds %struct.ERSTStorageHeader, ptr %11, i32 0, i32 5
  %12 = load i32, ptr %record_count5, align 1
  %call6 = call i32 @le32_to_cpu(i32 noundef %12)
  store i32 %call6, ptr %record_count, align 4
  %13 = load i32, ptr %record_count, align 4
  %sub = sub i32 %13, 1
  store i32 %sub, ptr %record_count, align 4
  %14 = load i32, ptr %record_count, align 4
  %call7 = call i32 @cpu_to_le32(i32 noundef %14)
  %15 = load ptr, ptr %s.addr, align 8
  %header8 = getelementptr inbounds %struct.ERSTDeviceState, ptr %15, i32 0, i32 14
  %16 = load ptr, ptr %header8, align 16
  %record_count9 = getelementptr inbounds %struct.ERSTStorageHeader, ptr %16, i32 0, i32 5
  store i32 %call7, ptr %record_count9, align 1
  store i32 0, ptr %rc, align 4
  br label %if.end10

if.end10:                                         ; preds = %if.then4, %if.end
  %17 = load i32, ptr %rc, align 4
  store i32 %17, ptr %retval, align 4
  br label %return

return:                                           ; preds = %if.end10, %if.then
  %18 = load i32, ptr %retval, align 4
  ret i32 %18
}