; Function Attrs: nofree norecurse nosync nounwind sspstrong memory(readwrite, inaccessiblemem: none) uwtable
define internal fastcc range(i32 0, 6) i32 @clear_erst_record(ptr noundef readonly captures(none) %s) unnamed_addr #4 {
entry:
  %record_identifier = getelementptr inbounds nuw i8, ptr %s, i64 3208
  %0 = load i64, ptr %record_identifier, align 8
  switch i64 %0, label %if.then.i [
    i64 0, label %return
    i64 -1, label %return
  ]

if.then.i:                                        ; preds = %entry
  %header.i = getelementptr inbounds nuw i8, ptr %s, i64 3216
  %1 = load ptr, ptr %header.i, align 16
  %record_count1.i = getelementptr inbounds nuw i8, ptr %1, i64 20
  %2 = load i32, ptr %record_count1.i, align 1
  %first_record_index.i = getelementptr inbounds nuw i8, ptr %s, i64 3224
  %3 = load i32, ptr %first_record_index.i, align 8
  %map.i = getelementptr inbounds nuw i8, ptr %1, i64 24
  %last_record_index.i = getelementptr inbounds nuw i8, ptr %s, i64 3228
  %4 = load i32, ptr %last_record_index.i, align 4
  %cmp211.i = icmp ult i32 %3, %4
  %cmp312.i = icmp ne i32 %2, 0
  %5 = select i1 %cmp211.i, i1 %cmp312.i, i1 false
  br i1 %5, label %for.body.preheader.i, label %return

for.body.preheader.i:                             ; preds = %if.then.i
  %6 = zext i32 %3 to i64
  %7 = zext i32 %4 to i64
  br label %for.body.i

for.body.i:                                       ; preds = %if.end.i, %for.body.preheader.i
  %indvars.iv.i = phi i64 [ %6, %for.body.preheader.i ], [ %indvars.iv.next.i, %if.end.i ]
  %count.013.i = phi i32 [ 0, %for.body.preheader.i ], [ %spec.select.i, %if.end.i ]
  %arrayidx.i = getelementptr [0 x i64], ptr %map.i, i64 0, i64 %indvars.iv.i
  %8 = load i64, ptr %arrayidx.i, align 1
  %cmp6.i = icmp eq i64 %8, %0
  br i1 %cmp6.i, label %lookup_erst_record.exit, label %if.end.i

if.end.i:                                         ; preds = %for.body.i
  %cmp13.not.i = icmp ne i64 %8, 0
  %inc.i = zext i1 %cmp13.not.i to i32
  %spec.select.i = add nuw i32 %count.013.i, %inc.i
  %indvars.iv.next.i = add nuw nsw i64 %indvars.iv.i, 1
  %cmp2.i = icmp samesign ult i64 %indvars.iv.next.i, %7
  %cmp3.i = icmp ult i32 %spec.select.i, %2
  %9 = select i1 %cmp2.i, i1 %cmp3.i, i1 false
  br i1 %9, label %for.body.i, label %return, !llvm.loop !5

lookup_erst_record.exit:                          ; preds = %for.body.i
  %tobool.not = icmp eq i64 %indvars.iv.i, 0
  br i1 %tobool.not, label %return, label %if.then4

if.then4:                                         ; preds = %lookup_erst_record.exit
  %10 = trunc nuw i64 %indvars.iv.i to i32
  %cmp.i = icmp ugt i32 %4, %10
  br i1 %cmp.i, label %if.then.i11, label %update_map_entry.exit

if.then.i11:                                      ; preds = %if.then4
  %idxprom.i = and i64 %indvars.iv.i, 4294967295
  %arrayidx.i14 = getelementptr [0 x i64], ptr %map.i, i64 0, i64 %idxprom.i
  store i64 0, ptr %arrayidx.i14, align 1
  %.pre = load ptr, ptr %header.i, align 16
  %record_count5.phi.trans.insert = getelementptr inbounds nuw i8, ptr %.pre, i64 20
  %.pre19 = load i32, ptr %record_count5.phi.trans.insert, align 1
  br label %update_map_entry.exit

update_map_entry.exit:                            ; preds = %if.then4, %if.then.i11
  %11 = phi i32 [ %2, %if.then4 ], [ %.pre19, %if.then.i11 ]
  %12 = phi ptr [ %1, %if.then4 ], [ %.pre, %if.then.i11 ]
  %record_count5 = getelementptr inbounds nuw i8, ptr %12, i64 20
  %sub = add i32 %11, -1
  store i32 %sub, ptr %record_count5, align 1
  br label %return

return:                                           ; preds = %if.end.i, %if.then.i, %lookup_erst_record.exit, %update_map_entry.exit, %entry, %entry
  %retval.0 = phi i32 [ 3, %entry ], [ 3, %entry ], [ 0, %update_map_entry.exit ], [ 5, %lookup_erst_record.exit ], [ 5, %if.then.i ], [ 5, %if.end.i ]
  ret i32 %retval.0
}